; Function Attrs: mustprogress uwtable
define internal noalias noundef nonnull ptr @_ZNK7testing8internal30ValuesInIteratorRangeGeneratorIN11opencv_test12_GLOBAL__N_116BorderType3x3ROIEE5BeginEv(ptr noundef nonnull align 8 dereferenceable(32) %0) unnamed_addr #4 align 2 personality ptr @__gxx_personality_v0 {
  %2 = tail call noalias noundef nonnull dereferenceable(32) ptr @_Znwm(i64 noundef 32) #31
  %3 = getelementptr inbounds nuw i8, ptr %0, i64 8
  %.val = load ptr, ptr %3, align 8, !tbaa !668
  store ptr getelementptr inbounds nuw inrange(-16, 56) (i8, ptr @_ZTVN7testing8internal30ValuesInIteratorRangeGeneratorIN11opencv_test12_GLOBAL__N_116BorderType3x3ROIEE8IteratorE, i64 16), ptr %2, align 8, !tbaa !19
  %4 = getelementptr inbounds nuw i8, ptr %2, i64 8
  store ptr %0, ptr %4, align 8, !tbaa !669
  %5 = getelementptr inbounds nuw i8, ptr %2, i64 16
  store ptr %.val, ptr %5, align 8, !tbaa !668
  %6 = getelementptr inbounds nuw i8, ptr %2, i64 24
  store ptr null, ptr %6, align 8, !tbaa !674
  ret ptr %2
}